target datalayout = "e-m:e-p270:32:32-p271:32:32-p272:64:64-i64:64-i128:128-f80:128-n8:16:32:64-S128"
target triple = "x86_64-pc-linux-gnu"

%struct.ThreadQueue = type { ptr, i32, i32, ptr, ptr, %union.pthread_mutex_t, %union.pthread_cond_t }
%union.pthread_mutex_t = type { %struct.__pthread_mutex_s }
%struct.__pthread_mutex_s = type { i32, i32, i32, i32, i32, i16, i16, %struct.__pthread_internal_list }
%struct.__pthread_internal_list = type { ptr, ptr }
%union.pthread_cond_t = type { %struct.__pthread_cond_s }
%struct.__pthread_cond_s = type { %union.__atomic_wide_counter, %union.__atomic_wide_counter, [2 x i32], [2 x i32], i32, i32, [2 x i32] }
%union.__atomic_wide_counter = type { i64 }

; Function Attrs: nounwind uwtable
define void @tq_free(ptr noundef %0) #0 {
  %2 = alloca ptr, align 8
  %3 = alloca ptr, align 8
  %4 = alloca i32, align 4
  store ptr %0, ptr %2, align 8, !tbaa !4
  call void @llvm.lifetime.start.p0(i64 8, ptr %3) #5
  %5 = load ptr, ptr %2, align 8, !tbaa !4
  %6 = load ptr, ptr %5, align 8, !tbaa !10
  store ptr %6, ptr %3, align 8, !tbaa !10
  %7 = load ptr, ptr %3, align 8, !tbaa !10
  %8 = icmp ne ptr %7, null
  br i1 %8, label %10, label %9

9:                                                ; preds = %1
  store i32 1, ptr %4, align 4
  br label %24

10:                                               ; preds = %1
  %11 = load ptr, ptr %3, align 8, !tbaa !10
  %12 = getelementptr inbounds nuw %struct.ThreadQueue, ptr %11, i32 0, i32 3
  call void @av_container_fifo_free(ptr noundef %12)
  %13 = load ptr, ptr %3, align 8, !tbaa !10
  %14 = getelementptr inbounds nuw %struct.ThreadQueue, ptr %13, i32 0, i32 4
  call void @av_fifo_freep2(ptr noundef %14)
  %15 = load ptr, ptr %3, align 8, !tbaa !10
  %16 = getelementptr inbounds nuw %struct.ThreadQueue, ptr %15, i32 0, i32 0
  call void @av_freep(ptr noundef %16)
  %17 = load ptr, ptr %3, align 8, !tbaa !10
  %18 = getelementptr inbounds nuw %struct.ThreadQueue, ptr %17, i32 0, i32 6
  %19 = call i32 @pthread_cond_destroy(ptr noundef %18) #5
  %20 = load ptr, ptr %3, align 8, !tbaa !10
  %21 = getelementptr inbounds nuw %struct.ThreadQueue, ptr %20, i32 0, i32 5
  %22 = call i32 @pthread_mutex_destroy(ptr noundef %21) #5
  %23 = load ptr, ptr %2, align 8, !tbaa !4
  call void @av_freep(ptr noundef %23)
  store i32 0, ptr %4, align 4
  br label %24

24:                                               ; preds = %10, %9
  call void @llvm.lifetime.end.p0(i64 8, ptr %3) #5
  %25 = load i32, ptr %4, align 4
  switch i32 %25, label %27 [
    i32 0, label %26
    i32 1, label %26
  ]

26:                                               ; preds = %24, %24
  ret void

27:                                               ; preds = %24
  unreachable
}

; Function Attrs: nounwind uwtable
define ptr @tq_alloc(i32 noundef %0, i64 noundef %1, i32 noundef %2) #0 {
  %4 = alloca ptr, align 8
  %5 = alloca i32, align 4
  %6 = alloca i64, align 8
  %7 = alloca i32, align 4
  %8 = alloca ptr, align 8
  %9 = alloca i32, align 4
  %10 = alloca i32, align 4
  store i32 %0, ptr %5, align 4, !tbaa !12
  store i64 %1, ptr %6, align 8, !tbaa !14
  store i32 %2, ptr %7, align 4, !tbaa !12
  call void @llvm.lifetime.start.p0(i64 8, ptr %8) #5
  call void @llvm.lifetime.start.p0(i64 4, ptr %9) #5
  %11 = call noalias ptr @av_mallocz(i64 noundef 120)
  store ptr %11, ptr %8, align 8, !tbaa !10
  %12 = load ptr, ptr %8, align 8, !tbaa !10
  %13 = icmp ne ptr %12, null
  br i1 %13, label %15, label %14

14:                                               ; preds = %3
  store ptr null, ptr %4, align 8
  store i32 1, ptr %10, align 4
  br label %78

15:                                               ; preds = %3
  %16 = load ptr, ptr %8, align 8, !tbaa !10
  %17 = getelementptr inbounds nuw %struct.ThreadQueue, ptr %16, i32 0, i32 6
  %18 = call i32 @pthread_cond_init(ptr noundef %17, ptr noundef null) #5
  store i32 %18, ptr %9, align 4, !tbaa !12
  %19 = load i32, ptr %9, align 4, !tbaa !12
  %20 = icmp ne i32 %19, 0
  br i1 %20, label %21, label %22

21:                                               ; preds = %15
  call void @av_freep(ptr noundef %8)
  store ptr null, ptr %4, align 8
  store i32 1, ptr %10, align 4
  br label %78

22:                                               ; preds = %15
  %23 = load ptr, ptr %8, align 8, !tbaa !10
  %24 = getelementptr inbounds nuw %struct.ThreadQueue, ptr %23, i32 0, i32 5
  %25 = call i32 @pthread_mutex_init(ptr noundef %24, ptr noundef null) #5
  store i32 %25, ptr %9, align 4, !tbaa !12
  %26 = load i32, ptr %9, align 4, !tbaa !12
  %27 = icmp ne i32 %26, 0
  br i1 %27, label %28, label %32

28:                                               ; preds = %22
  %29 = load ptr, ptr %8, align 8, !tbaa !10
  %30 = getelementptr inbounds nuw %struct.ThreadQueue, ptr %29, i32 0, i32 6
  %31 = call i32 @pthread_cond_destroy(ptr noundef %30) #5
  call void @av_freep(ptr noundef %8)
  store ptr null, ptr %4, align 8
  store i32 1, ptr %10, align 4
  br label %78

32:                                               ; preds = %22
  %33 = load i32, ptr %5, align 4, !tbaa !12
  %34 = zext i32 %33 to i64
  %35 = call noalias ptr @av_calloc(i64 noundef %34, i64 noundef 4)
  %36 = load ptr, ptr %8, align 8, !tbaa !10
  %37 = getelementptr inbounds nuw %struct.ThreadQueue, ptr %36, i32 0, i32 0
  store ptr %35, ptr %37, align 8, !tbaa !16
  %38 = load ptr, ptr %8, align 8, !tbaa !10
  %39 = getelementptr inbounds nuw %struct.ThreadQueue, ptr %38, i32 0, i32 0
  %40 = load ptr, ptr %39, align 8, !tbaa !16
  %41 = icmp ne ptr %40, null
  br i1 %41, label %43, label %42

42:                                               ; preds = %32
  br label %77

43:                                               ; preds = %32
  %44 = load i32, ptr %5, align 4, !tbaa !12
  %45 = load ptr, ptr %8, align 8, !tbaa !10
  %46 = getelementptr inbounds nuw %struct.ThreadQueue, ptr %45, i32 0, i32 1
  store i32 %44, ptr %46, align 8, !tbaa !21
  %47 = load i32, ptr %7, align 4, !tbaa !12
  %48 = load ptr, ptr %8, align 8, !tbaa !10
  %49 = getelementptr inbounds nuw %struct.ThreadQueue, ptr %48, i32 0, i32 2
  store i32 %47, ptr %49, align 4, !tbaa !22
  %50 = load i32, ptr %7, align 4, !tbaa !12
  %51 = icmp eq i32 %50, 0
  br i1 %51, label %52, label %54

52:                                               ; preds = %43
  %53 = call ptr @av_container_fifo_alloc_avframe(i32 noundef 0)
  br label %56

54:                                               ; preds = %43
  %55 = call ptr @av_container_fifo_alloc_avpacket(i32 noundef 0)
  br label %56

56:                                               ; preds = %54, %52
  %57 = phi ptr [ %53, %52 ], [ %55, %54 ]
  %58 = load ptr, ptr %8, align 8, !tbaa !10
  %59 = getelementptr inbounds nuw %struct.ThreadQueue, ptr %58, i32 0, i32 3
  store ptr %57, ptr %59, align 8, !tbaa !23
  %60 = load ptr, ptr %8, align 8, !tbaa !10
  %61 = getelementptr inbounds nuw %struct.ThreadQueue, ptr %60, i32 0, i32 3
  %62 = load ptr, ptr %61, align 8, !tbaa !23
  %63 = icmp ne ptr %62, null
  br i1 %63, label %65, label %64

64:                                               ; preds = %56
  br label %77

65:                                               ; preds = %56
  %66 = load i64, ptr %6, align 8, !tbaa !14
  %67 = call ptr @av_fifo_alloc2(i64 noundef %66, i64 noundef 4, i32 noundef 0)
  %68 = load ptr, ptr %8, align 8, !tbaa !10
  %69 = getelementptr inbounds nuw %struct.ThreadQueue, ptr %68, i32 0, i32 4
  store ptr %67, ptr %69, align 8, !tbaa !24
  %70 = load ptr, ptr %8, align 8, !tbaa !10
  %71 = getelementptr inbounds nuw %struct.ThreadQueue, ptr %70, i32 0, i32 4
  %72 = load ptr, ptr %71, align 8, !tbaa !24
  %73 = icmp ne ptr %72, null
  br i1 %73, label %75, label %74

74:                                               ; preds = %65
  br label %77

75:                                               ; preds = %65
  %76 = load ptr, ptr %8, align 8, !tbaa !10
  store ptr %76, ptr %4, align 8
  store i32 1, ptr %10, align 4
  br label %78

77:                                               ; preds = %74, %64, %42
  call void @tq_free(ptr noundef %8)
  store ptr null, ptr %4, align 8
  store i32 1, ptr %10, align 4
  br label %78

78:                                               ; preds = %77, %75, %28, %21, %14
  call void @llvm.lifetime.end.p0(i64 4, ptr %9) #5
  call void @llvm.lifetime.end.p0(i64 8, ptr %8) #5
  %79 = load ptr, ptr %4, align 8
  ret ptr %79
}