; Function Attrs: nounwind uwtable
define ptr @tq_alloc(i32 noundef %0, i64 noundef %1, i32 noundef %2) local_unnamed_addr #0 {
  %4 = alloca ptr, align 8
  call void @llvm.lifetime.start.p0(i64 8, ptr nonnull %4) #5
  %5 = tail call noalias ptr @av_mallocz(i64 noundef 120) #5
  store ptr %5, ptr %4, align 8, !tbaa !4
  %.not = icmp eq ptr %5, null
  br i1 %.not, label %tq_free.exit, label %6

6:                                                ; preds = %3
  %7 = getelementptr inbounds nuw i8, ptr %5, i64 72
  %8 = tail call i32 @pthread_cond_init(ptr noundef nonnull %7, ptr noundef null) #5
  %.not8 = icmp eq i32 %8, 0
  br i1 %.not8, label %9, label %tq_free.exit.sink.split

9:                                                ; preds = %6
  %10 = getelementptr inbounds nuw i8, ptr %5, i64 32
  %11 = tail call i32 @pthread_mutex_init(ptr noundef nonnull %10, ptr noundef null) #5
  %.not9 = icmp eq i32 %11, 0
  br i1 %.not9, label %14, label %12

12:                                               ; preds = %9
  %13 = tail call i32 @pthread_cond_destroy(ptr noundef nonnull %7) #5
  br label %tq_free.exit.sink.split

14:                                               ; preds = %9
  %15 = zext i32 %0 to i64
  %16 = tail call noalias ptr @av_calloc(i64 noundef %15, i64 noundef 4) #5
  store ptr %16, ptr %5, align 8, !tbaa !9
  %.not10 = icmp eq ptr %16, null
  br i1 %.not10, label %31, label %17

17:                                               ; preds = %14
  %18 = getelementptr inbounds nuw i8, ptr %5, i64 8
  store i32 %0, ptr %18, align 8, !tbaa !15
  %19 = getelementptr inbounds nuw i8, ptr %5, i64 12
  store i32 %2, ptr %19, align 4, !tbaa !16
  %20 = icmp eq i32 %2, 0
  br i1 %20, label %21, label %23

21:                                               ; preds = %17
  %22 = tail call ptr @av_container_fifo_alloc_avframe(i32 noundef 0) #5
  br label %25

23:                                               ; preds = %17
  %24 = tail call ptr @av_container_fifo_alloc_avpacket(i32 noundef 0) #5
  br label %25

25:                                               ; preds = %23, %21
  %26 = phi ptr [ %22, %21 ], [ %24, %23 ]
  %27 = getelementptr inbounds nuw i8, ptr %5, i64 16
  store ptr %26, ptr %27, align 8, !tbaa !17
  %.not11 = icmp eq ptr %26, null
  br i1 %.not11, label %31, label %28

28:                                               ; preds = %25
  %29 = tail call ptr @av_fifo_alloc2(i64 noundef %1, i64 noundef 4, i32 noundef 0) #5
  %30 = getelementptr inbounds nuw i8, ptr %5, i64 24
  store ptr %29, ptr %30, align 8, !tbaa !18
  %.not12 = icmp eq ptr %29, null
  br i1 %.not12, label %31, label %tq_free.exit

31:                                               ; preds = %14, %25, %28
  %32 = getelementptr inbounds nuw i8, ptr %5, i64 16
  tail call void @av_container_fifo_free(ptr noundef nonnull %32) #5
  %33 = getelementptr inbounds nuw i8, ptr %5, i64 24
  tail call void @av_fifo_freep2(ptr noundef nonnull %33) #5
  tail call void @av_freep(ptr noundef nonnull %5) #5
  %34 = tail call i32 @pthread_cond_destroy(ptr noundef nonnull %7) #5
  %35 = tail call i32 @pthread_mutex_destroy(ptr noundef nonnull %10) #5
  br label %tq_free.exit.sink.split

tq_free.exit.sink.split:                          ; preds = %6, %12, %31
  call void @av_freep(ptr noundef nonnull %4) #5
  br label %tq_free.exit

tq_free.exit:                                     ; preds = %tq_free.exit.sink.split, %28, %3
  %.0 = phi ptr [ null, %3 ], [ %5, %28 ], [ null, %tq_free.exit.sink.split ]
  call void @llvm.lifetime.end.p0(i64 8, ptr nonnull %4) #5
  ret ptr %.0
}